target datalayout = "e-m:e-p270:32:32-p271:32:32-p272:64:64-i64:64-i128:128-f80:128-n8:16:32:64-S128"
target triple = "x86_64-pc-linux-gnu"

%struct.Scheduler = type { ptr, ptr, i32, ptr, i32, i32, %union.pthread_mutex_t, i32, i32, %union.pthread_mutex_t, %union.pthread_cond_t, ptr, i32, ptr, i32, ptr, i32, ptr, i32, ptr, i32, i32, i32, %union.pthread_mutex_t, i64 }
%union.pthread_cond_t = type { %struct.__pthread_cond_s }
%struct.__pthread_cond_s = type { %union.__atomic_wide_counter, %union.__atomic_wide_counter, [2 x i32], [2 x i32], i32, i32, [2 x i32] }
%union.__atomic_wide_counter = type { i64 }
%union.pthread_mutex_t = type { %struct.__pthread_mutex_s }
%struct.__pthread_mutex_s = type { i32, i32, i32, i32, i32, i16, i16, %struct.__pthread_internal_list }
%struct.__pthread_internal_list = type { ptr, ptr }
%struct.timespec = type { i64, i64 }

; Function Attrs: nounwind uwtable
define i32 @sch_wait(ptr noundef %0, i64 noundef %1, ptr noundef %2) #0 {
  %4 = alloca ptr, align 8
  %5 = alloca i64, align 8
  %6 = alloca ptr, align 8
  %7 = alloca i32, align 4
  %8 = alloca %struct.timespec, align 8
  %9 = alloca i64, align 8
  store ptr %0, ptr %4, align 8, !tbaa !10
  store i64 %1, ptr %5, align 8, !tbaa !92
  store ptr %2, ptr %6, align 8, !tbaa !80
  call void @llvm.lifetime.start.p0(i64 4, ptr %7) #9
  %10 = call i64 @av_gettime()
  %11 = load i64, ptr %5, align 8, !tbaa !92
  %12 = add i64 %11, %10
  store i64 %12, ptr %5, align 8, !tbaa !92
  %13 = load ptr, ptr %4, align 8, !tbaa !10
  %14 = getelementptr inbounds nuw %struct.Scheduler, ptr %13, i32 0, i32 9
  %15 = call i32 @pthread_mutex_lock(ptr noundef %14) #9
  %16 = load ptr, ptr %4, align 8, !tbaa !10
  %17 = getelementptr inbounds nuw %struct.Scheduler, ptr %16, i32 0, i32 7
  %18 = load i32, ptr %17, align 8, !tbaa !203
  %19 = load ptr, ptr %4, align 8, !tbaa !10
  %20 = getelementptr inbounds nuw %struct.Scheduler, ptr %19, i32 0, i32 4
  %21 = load i32, ptr %20, align 8, !tbaa !39
  %22 = icmp ult i32 %18, %21
  br i1 %22, label %23, label %36

23:                                               ; preds = %3
  call void @llvm.lifetime.start.p0(i64 16, ptr %8) #9
  %24 = getelementptr inbounds nuw %struct.timespec, ptr %8, i32 0, i32 0
  %25 = load i64, ptr %5, align 8, !tbaa !92
  %26 = udiv i64 %25, 1000000
  store i64 %26, ptr %24, align 8, !tbaa !204
  %27 = getelementptr inbounds nuw %struct.timespec, ptr %8, i32 0, i32 1
  %28 = load i64, ptr %5, align 8, !tbaa !92
  %29 = urem i64 %28, 1000000
  %30 = mul i64 %29, 1000
  store i64 %30, ptr %27, align 8, !tbaa !206
  %31 = load ptr, ptr %4, align 8, !tbaa !10
  %32 = getelementptr inbounds nuw %struct.Scheduler, ptr %31, i32 0, i32 10
  %33 = load ptr, ptr %4, align 8, !tbaa !10
  %34 = getelementptr inbounds nuw %struct.Scheduler, ptr %33, i32 0, i32 9
  %35 = call i32 @pthread_cond_timedwait(ptr noundef %32, ptr noundef %34, ptr noundef %8)
  call void @llvm.lifetime.end.p0(i64 16, ptr %8) #9
  br label %36

36:                                               ; preds = %23, %3
  %37 = load ptr, ptr %4, align 8, !tbaa !10
  %38 = getelementptr inbounds nuw %struct.Scheduler, ptr %37, i32 0, i32 7
  %39 = load i32, ptr %38, align 8, !tbaa !203
  %40 = load ptr, ptr %4, align 8, !tbaa !10
  %41 = getelementptr inbounds nuw %struct.Scheduler, ptr %40, i32 0, i32 4
  %42 = load i32, ptr %41, align 8, !tbaa !39
  %43 = icmp eq i32 %39, %42
  br i1 %43, label %49, label %44

44:                                               ; preds = %36
  %45 = load ptr, ptr %4, align 8, !tbaa !10
  %46 = getelementptr inbounds nuw %struct.Scheduler, ptr %45, i32 0, i32 8
  %47 = load i32, ptr %46, align 4, !tbaa !207
  %48 = icmp ne i32 %47, 0
  br label %49

49:                                               ; preds = %44, %36
  %50 = phi i1 [ true, %36 ], [ %48, %44 ]
  %51 = zext i1 %50 to i32
  store i32 %51, ptr %7, align 4, !tbaa !12
  %52 = load ptr, ptr %4, align 8, !tbaa !10
  %53 = getelementptr inbounds nuw %struct.Scheduler, ptr %52, i32 0, i32 9
  %54 = call i32 @pthread_mutex_unlock(ptr noundef %53) #9
  %55 = load ptr, ptr %4, align 8, !tbaa !10
  %56 = getelementptr inbounds nuw %struct.Scheduler, ptr %55, i32 0, i32 24
  %57 = load atomic i64, ptr %56 seq_cst, align 8
  store i64 %57, ptr %9, align 8
  %58 = load i64, ptr %9, align 8, !tbaa !92
  %59 = load ptr, ptr %6, align 8, !tbaa !80
  store i64 %58, ptr %59, align 8, !tbaa !92
  %60 = load i32, ptr %7, align 4, !tbaa !12
  call void @llvm.lifetime.end.p0(i64 4, ptr %7) #9
  ret i32 %60
}