; Function Attrs: nounwind uwtable
define range(i32 0, 2) i32 @sch_wait(ptr noundef %0, i64 noundef %1, ptr noundef writeonly captures(none) initializes((0, 8)) %2) local_unnamed_addr #0 {
  %4 = alloca %struct.timespec, align 8
  %5 = tail call i64 @av_gettime() #9
  %6 = getelementptr inbounds nuw i8, ptr %0, i64 88
  %7 = tail call i32 @pthread_mutex_lock(ptr noundef nonnull %6) #9
  %8 = getelementptr inbounds nuw i8, ptr %0, i64 80
  %9 = load i32, ptr %8, align 8, !tbaa !186
  %10 = getelementptr inbounds nuw i8, ptr %0, i64 32
  %11 = load i32, ptr %10, align 8, !tbaa !20
  %12 = icmp ult i32 %9, %11
  br i1 %12, label %13, label %21

13:                                               ; preds = %3
  %14 = add i64 %5, %1
  call void @llvm.lifetime.start.p0(i64 16, ptr nonnull %4) #9
  %15 = udiv i64 %14, 1000000
  store i64 %15, ptr %4, align 8, !tbaa !187
  %16 = getelementptr inbounds nuw i8, ptr %4, i64 8
  %17 = urem i64 %14, 1000000
  %18 = mul nuw nsw i64 %17, 1000
  store i64 %18, ptr %16, align 8, !tbaa !189
  %19 = getelementptr inbounds nuw i8, ptr %0, i64 128
  %20 = call i32 @pthread_cond_timedwait(ptr noundef nonnull %19, ptr noundef nonnull %6, ptr noundef nonnull %4) #9
  call void @llvm.lifetime.end.p0(i64 16, ptr nonnull %4) #9
  %.pre = load i32, ptr %8, align 8, !tbaa !186
  %.pre15 = load i32, ptr %10, align 8, !tbaa !20
  br label %21

21:                                               ; preds = %13, %3
  %22 = phi i32 [ %.pre15, %13 ], [ %11, %3 ]
  %23 = phi i32 [ %.pre, %13 ], [ %9, %3 ]
  %24 = icmp eq i32 %23, %22
  br i1 %24, label %30, label %25

25:                                               ; preds = %21
  %26 = getelementptr inbounds nuw i8, ptr %0, i64 84
  %27 = load i32, ptr %26, align 4, !tbaa !190
  %28 = icmp ne i32 %27, 0
  %29 = zext i1 %28 to i32
  br label %30

30:                                               ; preds = %25, %21
  %31 = phi i32 [ 1, %21 ], [ %29, %25 ]
  %32 = call i32 @pthread_mutex_unlock(ptr noundef nonnull %6) #9
  %33 = getelementptr inbounds nuw i8, ptr %0, i64 304
  %34 = load atomic i64, ptr %33 seq_cst, align 8
  store i64 %34, ptr %2, align 8, !tbaa !82
  ret i32 %31
}